###############################################################################
#
# IAR C/C++ Compiler V3.11.1.207 for STM8                 24/Jan/2024  16:39:13
# Copyright 2010-2019 IAR Systems AB.
# PC-locked license - IAR Embedded Workbench for STMicroelectronics STM8
#
#    Source file  =  .\User\tm1650.c
#    Command line =  
#        -f "e:\Nas\电路\保温箱\YZW-S803-EE22-
#        KF7620-分体\C\build\Debug\.obj\User\tm1650.args.txt" (--silent -lCN
#        .\build\Debug\.obj\User\tm1650.lst -I "d:/Program Files (x86)/IAR
#        Systems/STM8/stm8/lib" -I Lib/H -I Lib/C -I User -D STM8S003
#        --data_model medium --code_model medium --dlib_config dlstm8smn.h -e
#        --vregs 16 -On --no_cse --no_unroll --no_inline --no_code_motion
#        --no_tbaa --no_cross_call --debug --dependencies=m + -o
#        .\build\Debug\.obj\User\tm1650.o .\User\tm1650.c)
#    Locale       =  Chinese (Simplified)_CHN.936
#    List file    =  .\build\Debug\.obj\User\tm1650.lst
#    Object file  =  .\build\Debug\.obj\User\tm1650.o
#
###############################################################################

e:\Nas\电路\保温箱\YZW-S803-EE22- KF7620-分体\C\User\tm1650.c
      1          #include "tm1650.h"
      2          
      3          // TODO:TM1650-浜搴

   \                                 In section .near.data, align 1
      4          uint8_t tm1650_level = 6;
   \                     tm1650_level:
   \   000000 06           DC8 6
      5          // TODO:TM1650-缂瀛板

   \                                 In section .near.data, align 1
      6          uint8_t tm1650_addrs[4] = {0x68, 0x6a, 0x6c, 0x6e};
   \                     tm1650_addrs:
   \   000000 68 6A 6C 6E  DC8 104, 106, 108, 110
      7          

   \                                 In section .far_func.text, align 1
      8          void tm1650_start()
      9          {
     10              TM1650_SDA_EN;
   \                     tm1650_start:
   \   000000 A6 20        LD        A, #0x20
   \   000002 AE 5005      LDW       X, #0x5005
   \   000005 8D ......    CALLF     GPIO_WriteHigh
     11              TM1650_SCL_EN;
   \   000009 A6 10        LD        A, #0x10
   \   00000B AE 5005      LDW       X, #0x5005
   \   00000E 8D ......    CALLF     GPIO_WriteHigh
     12              TM1650_SDA_CL;
   \   000012 A6 20        LD        A, #0x20
   \   000014 AE 5005      LDW       X, #0x5005
   \   000017 8D ......    CALLF     GPIO_WriteLow
     13              nop();
   \   00001B 9D           NOP
     14              TM1650_SCL_CL;
   \   00001C A6 10        LD        A, #0x10
   \   00001E AE 5005      LDW       X, #0x5005
   \   000021 8D ......    CALLF     GPIO_WriteLow
     15              nop();
   \   000025 9D           NOP
     16          }
   \   000026 87           RETF
     17          

   \                                 In section .far_func.text, align 1
     18          void tm1650_stop()
     19          {
     20              TM1650_SDA_CL;
   \                     tm1650_stop:
   \   000000 A6 20        LD        A, #0x20
   \   000002 AE 5005      LDW       X, #0x5005
   \   000005 8D ......    CALLF     GPIO_WriteLow
     21              TM1650_SCL_EN;
   \   000009 A6 10        LD        A, #0x10
   \   00000B AE 5005      LDW       X, #0x5005
   \   00000E 8D ......    CALLF     GPIO_WriteHigh
     22              nop();
   \   000012 9D           NOP
     23              TM1650_SDA_EN;
   \   000013 A6 20        LD        A, #0x20
   \   000015 AE 5005      LDW       X, #0x5005
   \   000018 8D ......    CALLF     GPIO_WriteHigh
     24              nop();
   \   00001C 9D           NOP
     25          }
   \   00001D 87           RETF
     26          

   \                                 In section .far_func.text, align 1
     27          bool ack()
     28          {
   \                     ack:
   \   000000 8D ......    CALLF     L:?push_w4
     29              bool b = FALSE;
   \   000004 3F ..        CLR       S:?b9
     30              u8 i = 0;
   \   000006 3F ..        CLR       S:?b8
     31              TM1650_SDA_EN;
   \   000008 A6 20        LD        A, #0x20
   \   00000A AE 5005      LDW       X, #0x5005
   \   00000D 8D ......    CALLF     GPIO_WriteHigh
     32              do
     33              {
     34                  i++;
   \                     ??ack_0:
   \   000011 3C ..        INC       S:?b8
     35                  if (i > 200)
   \   000013 B6 ..        LD        A, S:?b8
   \   000015 A1 C9        CP        A, #0xc9
   \   000017 25 06        JRC       L:??ack_1
     36                  {
     37                      b = TRUE;
   \   000019 A6 01        LD        A, #0x1
   \   00001B B7 ..        LD        S:?b9, A
     38                      continue;
   \   00001D 20 06        JRA       L:??ack_2
     39                  }
     40                  delay_us(1);
   \                     ??ack_1:
   \   00001F 5F           CLRW      X
   \   000020 5C           INCW      X
   \   000021 8D ......    CALLF     delay_us
     41              } while (READ_TM1650_KEY);
   \                     ??ack_2:
   \   000025 A6 20        LD        A, #0x20
   \   000027 AE 5005      LDW       X, #0x5005
   \   00002A 8D ......    CALLF     GPIO_ReadInputPin
   \   00002E A1 00        CP        A, #0x0
   \   000030 26 DF        JRNE      L:??ack_0
     42              TM1650_SCL_EN;
   \   000032 A6 10        LD        A, #0x10
   \   000034 AE 5005      LDW       X, #0x5005
   \   000037 8D ......    CALLF     GPIO_WriteHigh
     43              TM1650_SCL_CL;
   \   00003B A6 10        LD        A, #0x10
   \   00003D AE 5005      LDW       X, #0x5005
   \   000040 8D ......    CALLF     GPIO_WriteLow
     44              return b;
   \   000044 B6 ..        LD        A, S:?b9
   \   000046 AC ......    JPF       L:?epilogue_w4
     45          }
     46          

   \                                 In section .far_func.text, align 1
     47          void tm1650W(uint8_t dat)
     48          {
   \                     tm1650W:
   \   000000 8D ......    CALLF     L:?push_w4
   \   000004 B7 ..        LD        S:?b9, A
     49              u8 i;
     50              for (i = 0; i < 8; i++)
   \   000006 3F ..        CLR       S:?b8
   \                     ??tm1650W_0:
   \   000008 B6 ..        LD        A, S:?b8
   \   00000A A1 08        CP        A, #0x8
   \   00000C 24 38        JRNC      L:??tm1650W_1
     51              {
     52                  if (dat & 0x80)
   \   00000E B6 ..        LD        A, S:?b9
   \   000010 A4 80        AND       A, #0x80
   \   000012 A1 00        CP        A, #0x0
   \   000014 27 0B        JREQ      L:??tm1650W_2
     53                  {
     54                      TM1650_SDA_EN;
   \   000016 A6 20        LD        A, #0x20
   \   000018 AE 5005      LDW       X, #0x5005
   \   00001B 8D ......    CALLF     GPIO_WriteHigh
   \   00001F 20 09        JRA       L:??tm1650W_3
     55                  }
     56                  else
     57                  {
     58                      TM1650_SDA_CL;
   \                     ??tm1650W_2:
   \   000021 A6 20        LD        A, #0x20
   \   000023 AE 5005      LDW       X, #0x5005
   \   000026 8D ......    CALLF     GPIO_WriteLow
     59                  }
     60                  TM1650_SCL_EN;
   \                     ??tm1650W_3:
   \   00002A A6 10        LD        A, #0x10
   \   00002C AE 5005      LDW       X, #0x5005
   \   00002F 8D ......    CALLF     GPIO_WriteHigh
     61                  nop();
   \   000033 9D           NOP
     62                  TM1650_SCL_CL;
   \   000034 A6 10        LD        A, #0x10
   \   000036 AE 5005      LDW       X, #0x5005
   \   000039 8D ......    CALLF     GPIO_WriteLow
     63                  dat <<= 1;
   \   00003D B6 ..        LD        A, S:?b9
   \   00003F 48           SLL       A
   \   000040 B7 ..        LD        S:?b9, A
     64              }
   \   000042 3C ..        INC       S:?b8
   \   000044 20 C2        JRA       L:??tm1650W_0
     65          }
   \                     ??tm1650W_1:
   \   000046 AC ......    JPF       L:?epilogue_w4

   \                                 In section .far_func.text, align 1
     66          uint8_t tm1650R()
     67          {
   \                     tm1650R:
   \   000000 8D ......    CALLF     L:?push_w4
     68              char i;
     69              uint8_t dat = 0x00;
   \   000004 3F ..        CLR       S:?b8
     70              TM1650_SDA_EN;
   \   000006 A6 20        LD        A, #0x20
   \   000008 AE 5005      LDW       X, #0x5005
   \   00000B 8D ......    CALLF     GPIO_WriteHigh
     71              TM1650_SCL_CL;
   \   00000F A6 10        LD        A, #0x10
   \   000011 AE 5005      LDW       X, #0x5005
   \   000014 8D ......    CALLF     GPIO_WriteLow
     72              nop();
   \   000018 9D           NOP
     73              for (i = 0; i < 8; i++)
   \   000019 3F ..        CLR       S:?b9
   \                     ??tm1650R_0:
   \   00001B B6 ..        LD        A, S:?b9
   \   00001D A1 08        CP        A, #0x8
   \   00001F 24 30        JRNC      L:??tm1650R_1
     74              {
     75                  dat <<= 1;
   \   000021 B6 ..        LD        A, S:?b8
   \   000023 48           SLL       A
   \   000024 B7 ..        LD        S:?b8, A
     76                  TM1650_SCL_EN;
   \   000026 A6 10        LD        A, #0x10
   \   000028 AE 5005      LDW       X, #0x5005
   \   00002B 8D ......    CALLF     GPIO_WriteHigh
     77                  nop();
   \   00002F 9D           NOP
     78                  if (READ_TM1650_KEY)
   \   000030 A6 20        LD        A, #0x20
   \   000032 AE 5005      LDW       X, #0x5005
   \   000035 8D ......    CALLF     GPIO_ReadInputPin
   \   000039 A1 00        CP        A, #0x0
   \   00003B 27 06        JREQ      L:??tm1650R_2
     79                  {
     80                      dat = dat | 0x01;
   \   00003D B6 ..        LD        A, S:?b8
   \   00003F AA 01        OR        A, #0x1
   \   000041 B7 ..        LD        S:?b8, A
     81                  }
     82                  TM1650_SCL_CL;
   \                     ??tm1650R_2:
   \   000043 A6 10        LD        A, #0x10
   \   000045 AE 5005      LDW       X, #0x5005
   \   000048 8D ......    CALLF     GPIO_WriteLow
     83                  nop();
   \   00004C 9D           NOP
     84              }
   \   00004D 3C ..        INC       S:?b9
   \   00004F 20 CA        JRA       L:??tm1650R_0
     85              return dat;
   \                     ??tm1650R_1:
   \   000051 B6 ..        LD        A, S:?b8
   \   000053 AC ......    JPF       L:?epilogue_w4
     86          }
     87          

   \                                 In section .far_func.text, align 1
     88          void tm1650_displayInit()
     89          {
   \                     tm1650_displayInit:
   \   000000 8D ......    CALLF     L:?push_w4
     90              u8 i;
     91              uint8_t lenght = sizeof(tm1650_addrs) / sizeof(tm1650_addrs[0]);
   \   000004 35 04 ....   MOV       S:?b9, #0x4
     92              tm1650_displayW(0x48, (tm1650_level << 4) | 0x01);
   \   000008 C6 ....      LD        A, L:tm1650_level
   \   00000B 4E           SWAP      A
   \   00000C A4 F0        AND       A, #0xf0
   \   00000E AA 01        OR        A, #0x1
   \   000010 B7 ..        LD        S:?b0, A
   \   000012 A6 48        LD        A, #0x48
   \   000014 8D ......    CALLF     tm1650_displayW
     93              for (i = 0; i < lenght; i++)
   \   000018 3F ..        CLR       S:?b8
   \                     ??tm1650_displayInit_0:
   \   00001A B6 ..        LD        A, S:?b8
   \   00001C B1 ..        CP        A, S:?b9
   \   00001E 24 13        JRNC      L:??tm1650_displayInit_1
     94              {
     95                  tm1650_displayW(tm1650_addrs[i], 0x40);
   \   000020 35 40 ....   MOV       S:?b0, #0x40
   \   000024 5F           CLRW      X
   \   000025 B6 ..        LD        A, S:?b8
   \   000027 97           LD        XL, A
   \   000028 D6 ....      LD        A, (L:tm1650_addrs,X)
   \   00002B 8D ......    CALLF     tm1650_displayW
     96              }
   \   00002F 3C ..        INC       S:?b8
   \   000031 20 E7        JRA       L:??tm1650_displayInit_0
     97          }
   \                     ??tm1650_displayInit_1:
   \   000033 AC ......    JPF       L:?epilogue_w4

   \                                 In section .far_func.text, align 1
     98          void tm1650_displayW(uint8_t addr, uint8_t dat)
     99          {
   \                     tm1650_displayW:
   \   000000 8D ......    CALLF     L:?push_w4
   \   000004 B7 ..        LD        S:?b8, A
   \   000006 45 .. ..     MOV       S:?b9, S:?b0
    100              switch (addr)
   \   000009 B6 ..        LD        A, S:?b8
   \   00000B 4D           TNZ       A
   \   00000C 27 0C        JREQ      L:??tm1650_displayW_0
   \   00000E 4A           DEC       A
   \   00000F 27 2D        JREQ      L:??tm1650_displayW_1
   \   000011 4A           DEC       A
   \   000012 27 4D        JREQ      L:??tm1650_displayW_2
   \   000014 4A           DEC       A
   \   000015 27 6D        JREQ      L:??tm1650_displayW_3
   \   000017 CC ....      JP        L:??tm1650_displayW_4
    101              {
    102              case 0:
    103                  do
    104                  {
    105                      tm1650_start();
   \                     ??tm1650_displayW_0:
   \   00001A 8D ......    CALLF     tm1650_start
    106                      tm1650W(tm1650_addrs[0]);
   \   00001E C6 ....      LD        A, L:tm1650_addrs
   \   000021 8D ......    CALLF     tm1650W
    107                  } while (ack());
   \   000025 8D ......    CALLF     ack
   \   000029 A1 00        CP        A, #0x0
   \   00002B 26 ED        JRNE      L:??tm1650_displayW_0
    108                  tm1650W(dat);
   \   00002D B6 ..        LD        A, S:?b9
   \   00002F 8D ......    CALLF     tm1650W
    109                  ack();
   \   000033 8D ......    CALLF     ack
    110                  tm1650_stop();
   \   000037 8D ......    CALLF     tm1650_stop
    111                  break;
   \   00003B CC ....      JP        L:??tm1650_displayW_5
    112              case 1:
    113                  do
    114                  {
    115                      tm1650_start();
   \                     ??tm1650_displayW_1:
   \   00003E 8D ......    CALLF     tm1650_start
    116                      tm1650W(tm1650_addrs[1]);
   \   000042 C6 ....      LD        A, L:tm1650_addrs + 1
   \   000045 8D ......    CALLF     tm1650W
    117                  } while (ack());
   \   000049 8D ......    CALLF     ack
   \   00004D A1 00        CP        A, #0x0
   \   00004F 26 ED        JRNE      L:??tm1650_displayW_1
    118                  tm1650W(dat);
   \   000051 B6 ..        LD        A, S:?b9
   \   000053 8D ......    CALLF     tm1650W
    119                  ack();
   \   000057 8D ......    CALLF     ack
    120                  tm1650_stop();
   \   00005B 8D ......    CALLF     tm1650_stop
    121                  break;
   \   00005F 20 66        JRA       L:??tm1650_displayW_5
    122              case 2:
    123                  do
    124                  {
    125                      tm1650_start();
   \                     ??tm1650_displayW_2:
   \   000061 8D ......    CALLF     tm1650_start
    126                      tm1650W(tm1650_addrs[2]);
   \   000065 C6 ....      LD        A, L:tm1650_addrs + 2
   \   000068 8D ......    CALLF     tm1650W
    127                  } while (ack());
   \   00006C 8D ......    CALLF     ack
   \   000070 A1 00        CP        A, #0x0
   \   000072 26 ED        JRNE      L:??tm1650_displayW_2
    128                  tm1650W(dat);
   \   000074 B6 ..        LD        A, S:?b9
   \   000076 8D ......    CALLF     tm1650W
    129                  ack();
   \   00007A 8D ......    CALLF     ack
    130                  tm1650_stop();
   \   00007E 8D ......    CALLF     tm1650_stop
    131                  break;
   \   000082 20 43        JRA       L:??tm1650_displayW_5
    132              case 3:
    133                  do
    134                  {
    135                      tm1650_start();
   \                     ??tm1650_displayW_3:
   \   000084 8D ......    CALLF     tm1650_start
    136                      tm1650W(tm1650_addrs[3]);
   \   000088 C6 ....      LD        A, L:tm1650_addrs + 3
   \   00008B 8D ......    CALLF     tm1650W
    137                  } while (ack());
   \   00008F 8D ......    CALLF     ack
   \   000093 A1 00        CP        A, #0x0
   \   000095 26 ED        JRNE      L:??tm1650_displayW_3
    138                  tm1650W(dat);
   \   000097 B6 ..        LD        A, S:?b9
   \   000099 8D ......    CALLF     tm1650W
    139                  ack();
   \   00009D 8D ......    CALLF     ack
    140                  tm1650_stop();
   \   0000A1 8D ......    CALLF     tm1650_stop
    141                  break;
   \   0000A5 20 20        JRA       L:??tm1650_displayW_5
    142              default:
    143                  do
    144                  {
    145                      tm1650_start();
   \                     ??tm1650_displayW_4:
   \   0000A7 8D ......    CALLF     tm1650_start
    146                      tm1650W(addr);
   \   0000AB B6 ..        LD        A, S:?b8
   \   0000AD 8D ......    CALLF     tm1650W
    147                  } while (ack());
   \   0000B1 8D ......    CALLF     ack
   \   0000B5 A1 00        CP        A, #0x0
   \   0000B7 26 EE        JRNE      L:??tm1650_displayW_4
    148                  tm1650W(dat);
   \   0000B9 B6 ..        LD        A, S:?b9
   \   0000BB 8D ......    CALLF     tm1650W
    149                  ack();
   \   0000BF 8D ......    CALLF     ack
    150                  tm1650_stop();
   \   0000C3 8D ......    CALLF     tm1650_stop
    151                  break;
    152              }
    153          }
   \                     ??tm1650_displayW_5:
   \   0000C7 AC ......    JPF       L:?epilogue_w4
    154          

   \                                 In section .far_func.text, align 1
    155          uint8_t tm1650_displaykeyR()
    156          {
   \                     tm1650_displaykeyR:
   \   000000 3B ....      PUSH      S:?b8
    157              uint8_t dat;
    158              do
    159              {
    160                  tm1650_start();
   \                     ??tm1650_displaykeyR_0:
   \   000003 8D ......    CALLF     tm1650_start
    161                  tm1650W(0x49);
   \   000007 A6 49        LD        A, #0x49
   \   000009 8D ......    CALLF     tm1650W
    162              } while (ack());
   \   00000D 8D ......    CALLF     ack
   \   000011 A1 00        CP        A, #0x0
   \   000013 26 EE        JRNE      L:??tm1650_displaykeyR_0
    163              dat = tm1650R();
   \   000015 8D ......    CALLF     tm1650R
   \   000019 B7 ..        LD        S:?b8, A
    164              tm1650_stop();
   \   00001B 8D ......    CALLF     tm1650_stop
    165              return dat;
   \   00001F B6 ..        LD        A, S:?b8
   \   000021 32 ....      POP       S:?b8
   \   000024 87           RETF
    166          }
    167          

   \                                 In section .far_func.text, align 1
    168          void tm1650_displayOn()
    169          {
    170              tm1650_displayW(0x48, (tm1650_level << 4) | 0x01);
   \                     tm1650_displayOn:
   \   000000 C6 ....      LD        A, L:tm1650_level
   \   000003 4E           SWAP      A
   \   000004 A4 F0        AND       A, #0xf0
   \   000006 AA 01        OR        A, #0x1
   \   000008 B7 ..        LD        S:?b0, A
   \   00000A A6 48        LD        A, #0x48
   \   00000C 8D ......    CALLF     tm1650_displayW
    171          }
   \   000010 87           RETF
    172          

   \                                 In section .far_func.text, align 1
    173          void tm1650_displayOff()
    174          {
    175              tm1650_displayW(0x48, 0x00);
   \                     tm1650_displayOff:
   \   000000 3F ..        CLR       S:?b0
   \   000002 A6 48        LD        A, #0x48
   \   000004 8D ......    CALLF     tm1650_displayW
    176          }
   \   000008 87           RETF

   Section sizes:

   Bytes  Function/Label
   -----  --------------
      74  ack
      87  tm1650R
      74  tm1650W
       4  tm1650_addrs
      55  tm1650_displayInit
       9  tm1650_displayOff
      17  tm1650_displayOn
     203  tm1650_displayW
      37  tm1650_displaykeyR
       1  tm1650_level
      39  tm1650_start
      30  tm1650_stop

 
 625 bytes in section .far_func.text
   5 bytes in section .near.data
 
 625 bytes of CODE memory
   5 bytes of DATA memory

Errors: none
Warnings: 258
