###############################################################################
#
# IAR C/C++ Compiler V3.11.1.207 for STM8                 01/Feb/2024  13:38:06
# Copyright 2010-2019 IAR Systems AB.
# PC-locked license - IAR Embedded Workbench for STMicroelectronics STM8
#
#    Source file  =  .\User\stm8s_it.c
#    Command line =  
#        -f
#        e:\Nas\µÁ¬∑\±£Œ¬œ‰\YZW-S803-EE22\C2\build\Debug\.obj\User\stm8s_it.args.txt
#        (--silent -lCN .\build\Debug\.obj\User\stm8s_it.lst -I "d:/Program
#        Files (x86)/IAR Systems/STM8" -I Lib -I Lib/H -I "d:/Program Files
#        (x86)/IAR Systems/STM8/stm8/lib" -I Lib/C -I User -D STM8S003
#        --data_model medium --code_model medium --dlib_config dlstm8smn.h -e
#        --vregs 16 -On --no_cse --no_unroll --no_inline --no_code_motion
#        --no_tbaa --no_cross_call --debug --dependencies=m + -o
#        .\build\Debug\.obj\User\stm8s_it.o .\User\stm8s_it.c)
#    Locale       =  Chinese (Simplified)_CHN.936
#    List file    =  .\build\Debug\.obj\User\stm8s_it.lst
#    Object file  =  .\build\Debug\.obj\User\stm8s_it.o
#
###############################################################################

e:\Nas\µÁ¬∑\±£Œ¬œ‰\YZW-S803-EE22\C2\User\stm8s_it.c
      1          /**
      2           ******************************************************************************
      3           * @file    stm8s_it.c
      4           * @author  MCD Application Team
      5           * @version V2.3.0
      6           * @date    16-June-2017
      7           * @brief   Main Interrupt Service Routines.
      8           *          This file provides template for all peripherals interrupt service
      9           *          routine.
     10           ******************************************************************************
     11           * @attention
     12           *
     13           * <h2><center>&copy; COPYRIGHT 2014 STMicroelectronics</center></h2>
     14           *
     15           * Licensed under MCD-ST Liberty SW License Agreement V2, (the "License");
     16           * You may not use this file except in compliance with the License.
     17           * You may obtain a copy of the License at:
     18           *
     19           *        http://www.st.com/software_license_agreement_liberty_v2
     20           *
     21           * Unless required by applicable law or agreed to in writing, software
     22           * distributed under the License is distributed on an "AS IS" BASIS,
     23           * WITHOUT WARRANTIES OR CONDITIONS OF ANY KIND, either express or implied.
     24           * See the License for the specific language governing permissions and
     25           * limitations under the License.
     26           *
     27           ******************************************************************************
     28           */
     29          
     30          /* Includes ------------------------------------------------------------------*/
     31          #include "stm8s_it.h"
     32          
     33          /** @addtogroup Template_Project
     34           * @{
     35           */
     36          
     37          /* Private typedef -----------------------------------------------------------*/
     38          /* Private define ------------------------------------------------------------*/
     39          /* Private macro -------------------------------------------------------------*/
     40          /* Private variables ---------------------------------------------------------*/
     41          /* Private function prototypes -----------------------------------------------*/
     42          /* Private functions ---------------------------------------------------------*/
     43          /* Public functions ----------------------------------------------------------*/
     44          
     45          #ifdef _COSMIC_
     46          /**
     47           * @brief Dummy Interrupt routine
     48           * @par Parameters:
     49           * None
     50           * @retval
     51           * None
     52           */
     53          INTERRUPT_HANDLER(NonHandledInterrupt, 25)
     54          {
     55             /* In order to detect unexpected events during development,
     56                it is recommended to set a breakpoint on the following instruction.
     57             */
     58          }
     59          #endif /*_COSMIC_*/
     60          
     61          /**
     62           * @brief TRAP Interrupt routine
     63           * @param  None
     64           * @retval None
     65           */

   \                                 In section .far_func.text, align 1
     66          INTERRUPT_HANDLER_TRAP(TRAP_IRQHandler)
     67          {
     68             /* In order to detect unexpected events during development,
     69                it is recommended to set a breakpoint on the following instruction.
     70             */
     71          }
   \                     TRAP_IRQHandler:
   \                     _interrupt_1:
   \   000000 80           IRET
     72          
     73          /**
     74           * @brief Top Level Interrupt routine.
     75           * @param  None
     76           * @retval None
     77           */

   \                                 In section .far_func.text, align 1
     78          INTERRUPT_HANDLER(TLI_IRQHandler, 0)
     79          
     80          {
     81             /* In order to detect unexpected events during development,
     82                it is recommended to set a breakpoint on the following instruction.
     83             */
     84          }
   \                     TLI_IRQHandler:
   \                     _interrupt_2:
   \   000000 80           IRET
     85          
     86          /**
     87           * @brief Auto Wake Up Interrupt routine.
     88           * @param  None
     89           * @retval None
     90           */

   \                                 In section .far_func.text, align 1
     91          INTERRUPT_HANDLER(AWU_IRQHandler, 1)
     92          {
     93             /* In order to detect unexpected events during development,
     94                it is recommended to set a breakpoint on the following instruction.
     95             */
     96          }
   \                     AWU_IRQHandler:
   \                     _interrupt_3:
   \   000000 80           IRET
     97          
     98          /**
     99           * @brief Clock Controller Interrupt routine.
    100           * @param  None
    101           * @retval None
    102           */

   \                                 In section .far_func.text, align 1
    103          INTERRUPT_HANDLER(CLK_IRQHandler, 2)
    104          {
    105             /* In order to detect unexpected events during development,
    106                it is recommended to set a breakpoint on the following instruction.
    107             */
    108          }
   \                     CLK_IRQHandler:
   \                     _interrupt_4:
   \   000000 80           IRET
    109          
    110          /**
    111           * @brief External Interrupt PORTA Interrupt routine.
    112           * @param  None
    113           * @retval None
    114           */

   \                                 In section .far_func.text, align 1
    115          INTERRUPT_HANDLER(EXTI_PORTA_IRQHandler, 3)
    116          {
    117             /* In order to detect unexpected events during development,
    118                it is recommended to set a breakpoint on the following instruction.
    119             */
    120          }
   \                     EXTI_PORTA_IRQHandler:
   \                     _interrupt_5:
   \   000000 80           IRET
    121          
    122          /**
    123           * @brief External Interrupt PORTB Interrupt routine.
    124           * @param  None
    125           * @retval None
    126           */

   \                                 In section .far_func.text, align 1
    127          INTERRUPT_HANDLER(EXTI_PORTB_IRQHandler, 4)
    128          {
    129             /* In order to detect unexpected events during development,
    130                it is recommended to set a breakpoint on the following instruction.
    131             */
    132          }
   \                     EXTI_PORTB_IRQHandler:
   \                     _interrupt_6:
   \   000000 80           IRET
    133          
    134          /**
    135           * @brief External Interrupt PORTC Interrupt routine.
    136           * @param  None
    137           * @retval None
    138           */

   \                                 In section .far_func.text, align 1
    139          INTERRUPT_HANDLER(EXTI_PORTC_IRQHandler, 5)
    140          {
    141             /* In order to detect unexpected events during development,
    142                it is recommended to set a breakpoint on the following instruction.
    143             */
    144          }
   \                     EXTI_PORTC_IRQHandler:
   \                     _interrupt_7:
   \   000000 80           IRET
    145          
    146          /**
    147           * @brief External Interrupt PORTD Interrupt routine.
    148           * @param  None
    149           * @retval None
    150           */

   \                                 In section .far_func.text, align 1
    151          INTERRUPT_HANDLER(EXTI_PORTD_IRQHandler, 6)
    152          {
    153             /* In order to detect unexpected events during development,
    154                it is recommended to set a breakpoint on the following instruction.
    155             */
    156          }
   \                     EXTI_PORTD_IRQHandler:
   \                     _interrupt_8:
   \   000000 80           IRET
    157          
    158          /**
    159           * @brief External Interrupt PORTE Interrupt routine.
    160           * @param  None
    161           * @retval None
    162           */

   \                                 In section .far_func.text, align 1
    163          INTERRUPT_HANDLER(EXTI_PORTE_IRQHandler, 7)
    164          {
    165             /* In order to detect unexpected events during development,
    166                it is recommended to set a breakpoint on the following instruction.
    167             */
    168          }
   \                     EXTI_PORTE_IRQHandler:
   \                     _interrupt_9:
   \   000000 80           IRET
    169          
    170          #if defined(STM8S903) || defined(STM8AF622x)
    171          /**
    172           * @brief External Interrupt PORTF Interrupt routine.
    173           * @param  None
    174           * @retval None
    175           */
    176          INTERRUPT_HANDLER(EXTI_PORTF_IRQHandler, 8)
    177          {
    178             /* In order to detect unexpected events during development,
    179                it is recommended to set a breakpoint on the following instruction.
    180             */
    181          }
    182          #endif /* (STM8S903) || (STM8AF622x) */
    183          
    184          #if defined(STM8S208) || defined(STM8AF52Ax)
    185          /**
    186           * @brief CAN RX Interrupt routine.
    187           * @param  None
    188           * @retval None
    189           */
    190          INTERRUPT_HANDLER(CAN_RX_IRQHandler, 8)
    191          {
    192             /* In order to detect unexpected events during development,
    193                it is recommended to set a breakpoint on the following instruction.
    194             */
    195          }
    196          
    197          /**
    198           * @brief CAN TX Interrupt routine.
    199           * @param  None
    200           * @retval None
    201           */
    202          INTERRUPT_HANDLER(CAN_TX_IRQHandler, 9)
    203          {
    204             /* In order to detect unexpected events during development,
    205                it is recommended to set a breakpoint on the following instruction.
    206             */
    207          }
    208          #endif /* (STM8S208) || (STM8AF52Ax) */
    209          
    210          /**
    211           * @brief SPI Interrupt routine.
    212           * @param  None
    213           * @retval None
    214           */

   \                                 In section .far_func.text, align 1
    215          INTERRUPT_HANDLER(SPI_IRQHandler, 10)
    216          {
    217             /* In order to detect unexpected events during development,
    218                it is recommended to set a breakpoint on the following instruction.
    219             */
    220          }
   \                     SPI_IRQHandler:
   \                     _interrupt_12:
   \   000000 80           IRET
    221          
    222          /**
    223           * @brief Timer1 Update/Overflow/Trigger/Break Interrupt routine.
    224           * @param  None
    225           * @retval None
    226           */

   \                                 In section .far_func.text, align 1
    227          INTERRUPT_HANDLER(TIM1_UPD_OVF_TRG_BRK_IRQHandler, 11)
    228          {
   \                     TIM1_UPD_OVF_TRG_BRK_IRQHandler:
   \                     _interrupt_13:
   \   000000 8A           PUSH      CC
   \   000001 84           POP       A
   \   000002 A4 BF        AND       A, #0xbf
   \   000004 88           PUSH      A
   \   000005 86           POP       CC
   \   000006 8D ......    CALLF     L:?push_l0
   \   00000A 8D ......    CALLF     L:?push_l1
    229             /* In order to detect unexpected events during development,
    230                it is recommended to set a breakpoint on the following instruction.
    231             */
    232             extern bool LED_STATUS;
    233             extern bool KEY_DOWN;
    234             extern bool KEY_UP;
    235             extern bool DS18B20_CONVERT_STATUS;
    236             extern bool CONFIG_STATUS;
    237             extern bool KEY_DOWN;
    238             extern bool CONFIG_LED_STATUS;
    239             extern bool HF_STATUS;
    240             extern bool IT_HF_STATUS;
    241             extern bool IT_TEM_SUB_STATUS;
    242             extern bool IT_TEM_SUB_STATUS_M;
    243          
    244             static u8 LED_PWM_TIME;
    245             static u8 LED_PWM;
    246             static u16 DS18B20_CONVERT_TIME;
    247             static u16 CONFIG_TIME;
    248             static u16 KEY_DOWN_TIME;
    249             static u16 HF_TIME_S, TEM_SUB_TIME_S;
    250             static u8 HF_TIME_M, HF_TIME_H;
    251          
    252             static bool bol_Config_LED_status = FALSE;
    253             static bool the_tem_sub_status = FALSE;
    254          
    255             // ÂàÜÊÆµÂä†Ê∏©
    256             if (IT_TEM_SUB_STATUS)
   \   00000E C6 ....      LD        A, L:IT_TEM_SUB_STATUS
   \   000011 4D           TNZ       A
   \   000012 27 4F        JREQ      L:??TIM1_UPD_OVF_TRG_BRK_IRQHandler_0
    257             {
    258                if (the_tem_sub_status)
   \   000014 C6 ....      LD        A, L:`TIM1_UPD_OVF_TRG_BRK_IRQHandler::the_tem_sub_status`
   \   000017 4D           TNZ       A
   \   000018 27 16        JREQ      L:??TIM1_UPD_OVF_TRG_BRK_IRQHandler_1
    259                {
    260                   if (TEM_SUB_TIME_S > 5000)
   \   00001A CE ....      LDW       X, L:`TIM1_UPD_OVF_TRG_BRK_IRQHandler::TEM_SUB_TIME_S`
   \   00001D A3 1389      CPW       X, #0x1389
   \   000020 25 22        JRC       L:??TIM1_UPD_OVF_TRG_BRK_IRQHandler_2
    261                   {
    262                      TEM_SUB_TIME_S = 0;
   \   000022 5F           CLRW      X
   \   000023 CF ....      LDW       L:`TIM1_UPD_OVF_TRG_BRK_IRQHandler::TEM_SUB_TIME_S`, X
    263                      IT_TEM_SUB_STATUS_M = TRUE;
   \   000026 35 01 ....   MOV       L:IT_TEM_SUB_STATUS_M, #0x1
    264                      the_tem_sub_status = FALSE;
   \   00002A 725F ....    CLR       L:`TIM1_UPD_OVF_TRG_BRK_IRQHandler::the_tem_sub_status`
   \   00002E 20 14        JRA       L:??TIM1_UPD_OVF_TRG_BRK_IRQHandler_2
    265                   }
    266                }
    267                else
    268                {
    269                   if (TEM_SUB_TIME_S > 3000)
   \                     ??TIM1_UPD_OVF_TRG_BRK_IRQHandler_1:
   \   000030 CE ....      LDW       X, L:`TIM1_UPD_OVF_TRG_BRK_IRQHandler::TEM_SUB_TIME_S`
   \   000033 A3 0BB9      CPW       X, #0xbb9
   \   000036 25 0C        JRC       L:??TIM1_UPD_OVF_TRG_BRK_IRQHandler_2
    270                   {
    271                      TEM_SUB_TIME_S = 0;
   \   000038 5F           CLRW      X
   \   000039 CF ....      LDW       L:`TIM1_UPD_OVF_TRG_BRK_IRQHandler::TEM_SUB_TIME_S`, X
    272                      IT_TEM_SUB_STATUS_M = FALSE;
   \   00003C 725F ....    CLR       L:IT_TEM_SUB_STATUS_M
    273                      the_tem_sub_status = TRUE;
   \   000040 35 01 ....   MOV       L:`TIM1_UPD_OVF_TRG_BRK_IRQHandler::the_tem_sub_status`, #0x1
    274                   }
    275                }
    276                TEM_SUB_TIME_S++;
   \                     ??TIM1_UPD_OVF_TRG_BRK_IRQHandler_2:
   \   000044 CE ....      LDW       X, L:`TIM1_UPD_OVF_TRG_BRK_IRQHandler::TEM_SUB_TIME_S`
   \   000047 5C           INCW      X
   \   000048 CF ....      LDW       L:`TIM1_UPD_OVF_TRG_BRK_IRQHandler::TEM_SUB_TIME_S`, X
    277                TEM_SUB_TIME_S = (TEM_SUB_TIME_S > 5000) ? 5000 : TEM_SUB_TIME_S;
   \   00004B CE ....      LDW       X, L:`TIM1_UPD_OVF_TRG_BRK_IRQHandler::TEM_SUB_TIME_S`
   \   00004E A3 1389      CPW       X, #0x1389
   \   000051 25 08        JRC       L:??TIM1_UPD_OVF_TRG_BRK_IRQHandler_3
   \   000053 AE 1388      LDW       X, #0x1388
   \   000056 CF ....      LDW       L:`TIM1_UPD_OVF_TRG_BRK_IRQHandler::TEM_SUB_TIME_S`, X
   \   000059 20 10        JRA       L:??TIM1_UPD_OVF_TRG_BRK_IRQHandler_4
   \                     ??TIM1_UPD_OVF_TRG_BRK_IRQHandler_3:
   \   00005B CE ....      LDW       X, L:`TIM1_UPD_OVF_TRG_BRK_IRQHandler::TEM_SUB_TIME_S`
   \   00005E CF ....      LDW       L:`TIM1_UPD_OVF_TRG_BRK_IRQHandler::TEM_SUB_TIME_S`, X
   \   000061 20 08        JRA       L:??TIM1_UPD_OVF_TRG_BRK_IRQHandler_4
    278             }
    279             else
    280             {
    281                TEM_SUB_TIME_S = 0;
   \                     ??TIM1_UPD_OVF_TRG_BRK_IRQHandler_0:
   \   000063 5F           CLRW      X
   \   000064 CF ....      LDW       L:`TIM1_UPD_OVF_TRG_BRK_IRQHandler::TEM_SUB_TIME_S`, X
    282                the_tem_sub_status = FALSE;
   \   000067 725F ....    CLR       L:`TIM1_UPD_OVF_TRG_BRK_IRQHandler::the_tem_sub_status`
    283             }
    284          
    285             // Ëá™Âä®Êç¢Ê∞îËÆ°Êó∂
    286          
    287             if (HF_STATUS)
   \                     ??TIM1_UPD_OVF_TRG_BRK_IRQHandler_4:
   \   00006B C6 ....      LD        A, L:HF_STATUS
   \   00006E 4D           TNZ       A
   \   00006F 27 67        JREQ      L:??TIM1_UPD_OVF_TRG_BRK_IRQHandler_5
    288             {
    289                if (!IT_HF_STATUS)
   \   000071 C6 ....      LD        A, L:IT_HF_STATUS
   \   000074 4D           TNZ       A
   \   000075 26 39        JRNE      L:??TIM1_UPD_OVF_TRG_BRK_IRQHandler_6
    290                {
    291                   if (HF_TIME_S < 60000)
   \   000077 CE ....      LDW       X, L:`TIM1_UPD_OVF_TRG_BRK_IRQHandler::HF_TIME_S`
   \   00007A A3 EA60      CPW       X, #0xea60
   \   00007D 24 09        JRNC      L:??TIM1_UPD_OVF_TRG_BRK_IRQHandler_7
    292                   {
    293                      HF_TIME_S++;
   \   00007F CE ....      LDW       X, L:`TIM1_UPD_OVF_TRG_BRK_IRQHandler::HF_TIME_S`
   \   000082 5C           INCW      X
   \   000083 CF ....      LDW       L:`TIM1_UPD_OVF_TRG_BRK_IRQHandler::HF_TIME_S`, X
   \   000086 20 50        JRA       L:??TIM1_UPD_OVF_TRG_BRK_IRQHandler_5
    294                   }
    295                   else
    296                   {
    297                      HF_TIME_S = 0;
   \                     ??TIM1_UPD_OVF_TRG_BRK_IRQHandler_7:
   \   000088 5F           CLRW      X
   \   000089 CF ....      LDW       L:`TIM1_UPD_OVF_TRG_BRK_IRQHandler::HF_TIME_S`, X
    298                      HF_TIME_M++;
   \   00008C 725C ....    INC       L:`TIM1_UPD_OVF_TRG_BRK_IRQHandler::HF_TIME_M`
    299                      if (HF_TIME_M > 59)
   \   000090 C6 ....      LD        A, L:`TIM1_UPD_OVF_TRG_BRK_IRQHandler::HF_TIME_M`
   \   000093 A1 3C        CP        A, #0x3c
   \   000095 25 41        JRC       L:??TIM1_UPD_OVF_TRG_BRK_IRQHandler_5
    300                      {
    301                         HF_TIME_M = 0;
   \   000097 725F ....    CLR       L:`TIM1_UPD_OVF_TRG_BRK_IRQHandler::HF_TIME_M`
    302                         HF_TIME_H++;
   \   00009B 725C ....    INC       L:`TIM1_UPD_OVF_TRG_BRK_IRQHandler::HF_TIME_H`
    303                         if (HF_TIME_H > 2)
   \   00009F C6 ....      LD        A, L:`TIM1_UPD_OVF_TRG_BRK_IRQHandler::HF_TIME_H`
   \   0000A2 A1 03        CP        A, #0x3
   \   0000A4 25 32        JRC       L:??TIM1_UPD_OVF_TRG_BRK_IRQHandler_5
    304                         {
    305                            HF_TIME_H = 0;
   \   0000A6 725F ....    CLR       L:`TIM1_UPD_OVF_TRG_BRK_IRQHandler::HF_TIME_H`
    306                            IT_HF_STATUS = TRUE;
   \   0000AA 35 01 ....   MOV       L:IT_HF_STATUS, #0x1
   \   0000AE 20 28        JRA       L:??TIM1_UPD_OVF_TRG_BRK_IRQHandler_5
    307                         }
    308                      }
    309                   }
    310                }
    311                else
    312                {
    313                   if (HF_TIME_S < 60000)
   \                     ??TIM1_UPD_OVF_TRG_BRK_IRQHandler_6:
   \   0000B0 CE ....      LDW       X, L:`TIM1_UPD_OVF_TRG_BRK_IRQHandler::HF_TIME_S`
   \   0000B3 A3 EA60      CPW       X, #0xea60
   \   0000B6 24 09        JRNC      L:??TIM1_UPD_OVF_TRG_BRK_IRQHandler_8
    314                   {
    315                      HF_TIME_S++;
   \   0000B8 CE ....      LDW       X, L:`TIM1_UPD_OVF_TRG_BRK_IRQHandler::HF_TIME_S`
   \   0000BB 5C           INCW      X
   \   0000BC CF ....      LDW       L:`TIM1_UPD_OVF_TRG_BRK_IRQHandler::HF_TIME_S`, X
   \   0000BF 20 17        JRA       L:??TIM1_UPD_OVF_TRG_BRK_IRQHandler_5
    316                   }
    317                   else
    318                   {
    319                      HF_TIME_S = 0;
   \                     ??TIM1_UPD_OVF_TRG_BRK_IRQHandler_8:
   \   0000C1 5F           CLRW      X
   \   0000C2 CF ....      LDW       L:`TIM1_UPD_OVF_TRG_BRK_IRQHandler::HF_TIME_S`, X
    320                      HF_TIME_M++;
   \   0000C5 725C ....    INC       L:`TIM1_UPD_OVF_TRG_BRK_IRQHandler::HF_TIME_M`
    321                      if (HF_TIME_M > 1)
   \   0000C9 C6 ....      LD        A, L:`TIM1_UPD_OVF_TRG_BRK_IRQHandler::HF_TIME_M`
   \   0000CC A1 02        CP        A, #0x2
   \   0000CE 25 08        JRC       L:??TIM1_UPD_OVF_TRG_BRK_IRQHandler_5
    322                      {
    323                         HF_TIME_M = 0;
   \   0000D0 725F ....    CLR       L:`TIM1_UPD_OVF_TRG_BRK_IRQHandler::HF_TIME_M`
    324                         IT_HF_STATUS = FALSE;
   \   0000D4 725F ....    CLR       L:IT_HF_STATUS
    325                      }
    326                   }
    327                }
    328             }
    329          
    330             // ÊåâÈíÆÊåâ‰∏ãËÆ°Êó∂
    331          
    332             if (KEY_DOWN)
   \                     ??TIM1_UPD_OVF_TRG_BRK_IRQHandler_5:
   \   0000D8 C6 ....      LD        A, L:KEY_DOWN
   \   0000DB 4D           TNZ       A
   \   0000DC 27 1B        JREQ      L:??TIM1_UPD_OVF_TRG_BRK_IRQHandler_9
    333             {
    334                if (KEY_DOWN_TIME > 500)
   \   0000DE CE ....      LDW       X, L:`TIM1_UPD_OVF_TRG_BRK_IRQHandler::KEY_DOWN_TIME`
   \   0000E1 A3 01F5      CPW       X, #0x1f5
   \   0000E4 25 0A        JRC       L:??TIM1_UPD_OVF_TRG_BRK_IRQHandler_10
    335                {
    336                   KEY_DOWN_TIME = 0;
   \   0000E6 5F           CLRW      X
   \   0000E7 CF ....      LDW       L:`TIM1_UPD_OVF_TRG_BRK_IRQHandler::KEY_DOWN_TIME`, X
    337                   KEY_DOWN = FALSE;
   \   0000EA 725F ....    CLR       L:KEY_DOWN
   \   0000EE 20 0D        JRA       L:??TIM1_UPD_OVF_TRG_BRK_IRQHandler_11
    338                }
    339                else
    340                {
    341                   KEY_DOWN_TIME++;
   \                     ??TIM1_UPD_OVF_TRG_BRK_IRQHandler_10:
   \   0000F0 CE ....      LDW       X, L:`TIM1_UPD_OVF_TRG_BRK_IRQHandler::KEY_DOWN_TIME`
   \   0000F3 5C           INCW      X
   \   0000F4 CF ....      LDW       L:`TIM1_UPD_OVF_TRG_BRK_IRQHandler::KEY_DOWN_TIME`, X
   \   0000F7 20 04        JRA       L:??TIM1_UPD_OVF_TRG_BRK_IRQHandler_11
    342                }
    343             }
    344             else
    345             {
    346                KEY_DOWN_TIME = 0;
   \                     ??TIM1_UPD_OVF_TRG_BRK_IRQHandler_9:
   \   0000F9 5F           CLRW      X
   \   0000FA CF ....      LDW       L:`TIM1_UPD_OVF_TRG_BRK_IRQHandler::KEY_DOWN_TIME`, X
    347             }
    348          
    349             // ËÆæÁΩÆÂºÄÂêØÔºå Êï∞Á†ÅÁ†ÅÈó™ÁÉÅËÆ∞Êó∂
    350          
    351             if (CONFIG_STATUS)
   \                     ??TIM1_UPD_OVF_TRG_BRK_IRQHandler_11:
   \   0000FD C6 ....      LD        A, L:CONFIG_STATUS
   \   000100 4D           TNZ       A
   \   000101 27 2C        JREQ      L:??TIM1_UPD_OVF_TRG_BRK_IRQHandler_12
    352             {
    353                if (CONFIG_TIME > 500)
   \   000103 CE ....      LDW       X, L:`TIM1_UPD_OVF_TRG_BRK_IRQHandler::CONFIG_TIME`
   \   000106 A3 01F5      CPW       X, #0x1f5
   \   000109 25 1B        JRC       L:??TIM1_UPD_OVF_TRG_BRK_IRQHandler_13
    354                {
    355                   CONFIG_TIME = 0;
   \   00010B 5F           CLRW      X
   \   00010C CF ....      LDW       L:`TIM1_UPD_OVF_TRG_BRK_IRQHandler::CONFIG_TIME`, X
    356                   bol_Config_LED_status = !bol_Config_LED_status;
   \   00010F C6 ....      LD        A, L:`TIM1_UPD_OVF_TRG_BRK_IRQHandler::bol_Config_LED_status`
   \   000112 4D           TNZ       A
   \   000113 26 06        JRNE      L:??TIM1_UPD_OVF_TRG_BRK_IRQHandler_14
   \   000115 35 01 ....   MOV       L:`TIM1_UPD_OVF_TRG_BRK_IRQHandler::bol_Config_LED_status`, #0x1
   \   000119 20 04        JRA       L:??TIM1_UPD_OVF_TRG_BRK_IRQHandler_15
   \                     ??TIM1_UPD_OVF_TRG_BRK_IRQHandler_14:
   \   00011B 725F ....    CLR       L:`TIM1_UPD_OVF_TRG_BRK_IRQHandler::bol_Config_LED_status`
    357                   CONFIG_LED_STATUS = bol_Config_LED_status;
   \                     ??TIM1_UPD_OVF_TRG_BRK_IRQHandler_15:
   \   00011F 55 .... .... MOV       L:CONFIG_LED_STATUS, L:`TIM1_UPD_OVF_TRG_BRK_IRQHandler::bol_Config_LED_status`
   \   000124 20 11        JRA       L:??TIM1_UPD_OVF_TRG_BRK_IRQHandler_16
    358                }
    359                else
    360                {
    361                   CONFIG_TIME++;
   \                     ??TIM1_UPD_OVF_TRG_BRK_IRQHandler_13:
   \   000126 CE ....      LDW       X, L:`TIM1_UPD_OVF_TRG_BRK_IRQHandler::CONFIG_TIME`
   \   000129 5C           INCW      X
   \   00012A CF ....      LDW       L:`TIM1_UPD_OVF_TRG_BRK_IRQHandler::CONFIG_TIME`, X
   \   00012D 20 08        JRA       L:??TIM1_UPD_OVF_TRG_BRK_IRQHandler_16
    362                }
    363             }
    364             else
    365             {
    366                CONFIG_TIME = 0;
   \                     ??TIM1_UPD_OVF_TRG_BRK_IRQHandler_12:
   \   00012F 5F           CLRW      X
   \   000130 CF ....      LDW       L:`TIM1_UPD_OVF_TRG_BRK_IRQHandler::CONFIG_TIME`, X
    367                bol_Config_LED_status = FALSE;
   \   000133 725F ....    CLR       L:`TIM1_UPD_OVF_TRG_BRK_IRQHandler::bol_Config_LED_status`
    368             }
    369          
    370             // DS18B20 ËΩ¨Êç¢Êó∂Èó¥Âª∂Êó∂
    371          
    372             if (DS18B20_CONVERT_STATUS)
   \                     ??TIM1_UPD_OVF_TRG_BRK_IRQHandler_16:
   \   000137 C6 ....      LD        A, L:DS18B20_CONVERT_STATUS
   \   00013A 4D           TNZ       A
   \   00013B 27 1B        JREQ      L:??TIM1_UPD_OVF_TRG_BRK_IRQHandler_17
    373             {
    374                if (DS18B20_CONVERT_TIME > 300)
   \   00013D CE ....      LDW       X, L:`TIM1_UPD_OVF_TRG_BRK_IRQHandler::DS18B20_CONVERT_TIME`
   \   000140 A3 012D      CPW       X, #0x12d
   \   000143 25 0A        JRC       L:??TIM1_UPD_OVF_TRG_BRK_IRQHandler_18
    375                {
    376          
    377                   DS18B20_CONVERT_TIME = 0;
   \   000145 5F           CLRW      X
   \   000146 CF ....      LDW       L:`TIM1_UPD_OVF_TRG_BRK_IRQHandler::DS18B20_CONVERT_TIME`, X
    378                   DS18B20_CONVERT_STATUS = FALSE;
   \   000149 725F ....    CLR       L:DS18B20_CONVERT_STATUS
   \   00014D 20 0D        JRA       L:??TIM1_UPD_OVF_TRG_BRK_IRQHandler_19
    379                }
    380                else
    381                {
    382                   DS18B20_CONVERT_TIME++;
   \                     ??TIM1_UPD_OVF_TRG_BRK_IRQHandler_18:
   \   00014F CE ....      LDW       X, L:`TIM1_UPD_OVF_TRG_BRK_IRQHandler::DS18B20_CONVERT_TIME`
   \   000152 5C           INCW      X
   \   000153 CF ....      LDW       L:`TIM1_UPD_OVF_TRG_BRK_IRQHandler::DS18B20_CONVERT_TIME`, X
   \   000156 20 04        JRA       L:??TIM1_UPD_OVF_TRG_BRK_IRQHandler_19
    383                }
    384             }
    385             else
    386             {
    387                DS18B20_CONVERT_TIME = 0;
   \                     ??TIM1_UPD_OVF_TRG_BRK_IRQHandler_17:
   \   000158 5F           CLRW      X
   \   000159 CF ....      LDW       L:`TIM1_UPD_OVF_TRG_BRK_IRQHandler::DS18B20_CONVERT_TIME`, X
    388             }
    389          
    390             // LED PWM ÂºÄÂÖ≥ËÆ∞Êó∂
    391          
    392             if (LED_PWM_TIME == 30)
   \                     ??TIM1_UPD_OVF_TRG_BRK_IRQHandler_19:
   \   00015C C6 ....      LD        A, L:`TIM1_UPD_OVF_TRG_BRK_IRQHandler::LED_PWM_TIME`
   \   00015F A1 1E        CP        A, #0x1e
   \   000161 26 35        JRNE      L:??TIM1_UPD_OVF_TRG_BRK_IRQHandler_20
    393             {
    394                LED_PWM_TIME = 0;
   \   000163 725F ....    CLR       L:`TIM1_UPD_OVF_TRG_BRK_IRQHandler::LED_PWM_TIME`
    395                if (LED_STATUS)
   \   000167 C6 ....      LD        A, L:LED_STATUS
   \   00016A 4D           TNZ       A
   \   00016B 27 16        JREQ      L:??TIM1_UPD_OVF_TRG_BRK_IRQHandler_21
    396                {
    397                   if (LED_PWM < 100)
   \   00016D C6 ....      LD        A, L:`TIM1_UPD_OVF_TRG_BRK_IRQHandler::LED_PWM`
   \   000170 A1 64        CP        A, #0x64
   \   000172 24 28        JRNC      L:??TIM1_UPD_OVF_TRG_BRK_IRQHandler_22
    398                   {
    399                      LED_PWM++;
   \   000174 725C ....    INC       L:`TIM1_UPD_OVF_TRG_BRK_IRQHandler::LED_PWM`
    400                      TIM2_SetCompare1(LED_PWM);
   \   000178 C6 ....      LD        A, L:`TIM1_UPD_OVF_TRG_BRK_IRQHandler::LED_PWM`
   \   00017B 5F           CLRW      X
   \   00017C 97           LD        XL, A
   \   00017D 8D ......    CALLF     TIM2_SetCompare1
   \   000181 20 19        JRA       L:??TIM1_UPD_OVF_TRG_BRK_IRQHandler_22
    401                   }
    402                }
    403                else
    404                {
    405                   if (LED_PWM > 0)
   \                     ??TIM1_UPD_OVF_TRG_BRK_IRQHandler_21:
   \   000183 C6 ....      LD        A, L:`TIM1_UPD_OVF_TRG_BRK_IRQHandler::LED_PWM`
   \   000186 4D           TNZ       A
   \   000187 27 13        JREQ      L:??TIM1_UPD_OVF_TRG_BRK_IRQHandler_22
    406                   {
    407                      LED_PWM--;
   \   000189 725A ....    DEC       L:`TIM1_UPD_OVF_TRG_BRK_IRQHandler::LED_PWM`
    408                      TIM2_SetCompare1(LED_PWM);
   \   00018D C6 ....      LD        A, L:`TIM1_UPD_OVF_TRG_BRK_IRQHandler::LED_PWM`
   \   000190 5F           CLRW      X
   \   000191 97           LD        XL, A
   \   000192 8D ......    CALLF     TIM2_SetCompare1
   \   000196 20 04        JRA       L:??TIM1_UPD_OVF_TRG_BRK_IRQHandler_22
    409                   }
    410                }
    411             }
    412             else
    413             {
    414                LED_PWM_TIME++;
   \                     ??TIM1_UPD_OVF_TRG_BRK_IRQHandler_20:
   \   000198 725C ....    INC       L:`TIM1_UPD_OVF_TRG_BRK_IRQHandler::LED_PWM_TIME`
    415             }
    416             TIM1_ClearITPendingBit(TIM1_IT_UPDATE);
   \                     ??TIM1_UPD_OVF_TRG_BRK_IRQHandler_22:
   \   00019C A6 01        LD        A, #0x1
   \   00019E 8D ......    CALLF     TIM1_ClearITPendingBit
    417          }
   \   0001A2 8D ......    CALLF     L:?pop_l1
   \   0001A6 8D ......    CALLF     L:?pop_l0
   \   0001AA 80           IRET

   \                                 In section .near.bss, align 1
   \                     `TIM1_UPD_OVF_TRG_BRK_IRQHandler::LED_PWM_TIME`:
   \   000000              DS8 1

   \                                 In section .near.bss, align 1
   \                     `TIM1_UPD_OVF_TRG_BRK_IRQHandler::LED_PWM`:
   \   000000              DS8 1

   \                                 In section .near.bss, align 1
   \                     `TIM1_UPD_OVF_TRG_BRK_IRQHandler::DS18B20_CONVERT_TIME`:
   \   000000              DS8 2

   \                                 In section .near.bss, align 1
   \                     `TIM1_UPD_OVF_TRG_BRK_IRQHandler::CONFIG_TIME`:
   \   000000              DS8 2

   \                                 In section .near.bss, align 1
   \                     `TIM1_UPD_OVF_TRG_BRK_IRQHandler::KEY_DOWN_TIME`:
   \   000000              DS8 2

   \                                 In section .near.bss, align 1
   \                     `TIM1_UPD_OVF_TRG_BRK_IRQHandler::HF_TIME_S`:
   \   000000              DS8 2

   \                                 In section .near.bss, align 1
   \                     `TIM1_UPD_OVF_TRG_BRK_IRQHandler::TEM_SUB_TIME_S`:
   \   000000              DS8 2

   \                                 In section .near.bss, align 1
   \                     `TIM1_UPD_OVF_TRG_BRK_IRQHandler::HF_TIME_M`:
   \   000000              DS8 1

   \                                 In section .near.bss, align 1
   \                     `TIM1_UPD_OVF_TRG_BRK_IRQHandler::HF_TIME_H`:
   \   000000              DS8 1

   \                                 In section .near.bss, align 1
   \                     `TIM1_UPD_OVF_TRG_BRK_IRQHandler::bol_Config_LED_status`:
   \   000000              DS8 1

   \                                 In section .near.bss, align 1
   \                     `TIM1_UPD_OVF_TRG_BRK_IRQHandler::the_tem_sub_status`:
   \   000000              DS8 1
    418          
    419          /**
    420           * @brief Timer1 Capture/Compare Interrupt routine.
    421           * @param  None
    422           * @retval None
    423           */

   \                                 In section .far_func.text, align 1
    424          INTERRUPT_HANDLER(TIM1_CAP_COM_IRQHandler, 12)
    425          {
    426             /* In order to detect unexpected events during development,
    427                it is recommended to set a breakpoint on the following instruction.
    428             */
    429          }
   \                     TIM1_CAP_COM_IRQHandler:
   \                     _interrupt_14:
   \   000000 80           IRET
    430          
    431          #if defined(STM8S903) || defined(STM8AF622x)
    432          /**
    433           * @brief Timer5 Update/Overflow/Break/Trigger Interrupt routine.
    434           * @param  None
    435           * @retval None
    436           */
    437          INTERRUPT_HANDLER(TIM5_UPD_OVF_BRK_TRG_IRQHandler, 13)
    438          {
    439             /* In order to detect unexpected events during development,
    440                it is recommended to set a breakpoint on the following instruction.
    441             */
    442          }
    443          
    444          /**
    445           * @brief Timer5 Capture/Compare Interrupt routine.
    446           * @param  None
    447           * @retval None
    448           */
    449          INTERRUPT_HANDLER(TIM5_CAP_COM_IRQHandler, 14)
    450          {
    451             /* In order to detect unexpected events during development,
    452                it is recommended to set a breakpoint on the following instruction.
    453             */
    454          }
    455          
    456          #else  /* (STM8S208) || (STM8S207) || (STM8S105) || (STM8S103) || (STM8AF62Ax) || (STM8AF52Ax) || (STM8AF626x) */
    457          /**
    458           * @brief Timer2 Update/Overflow/Break Interrupt routine.
    459           * @param  None
    460           * @retval None
    461           */

   \                                 In section .far_func.text, align 1
    462          INTERRUPT_HANDLER(TIM2_UPD_OVF_BRK_IRQHandler, 13)
    463          {
    464             /* In order to detect unexpected events during development,
    465                it is recommended to set a breakpoint on the following instruction.
    466             */
    467          }
   \                     TIM2_UPD_OVF_BRK_IRQHandler:
   \                     _interrupt_15:
   \   000000 80           IRET
    468          
    469          /**
    470           * @brief Timer2 Capture/Compare Interrupt routine.
    471           * @param  None
    472           * @retval None
    473           */

   \                                 In section .far_func.text, align 1
    474          INTERRUPT_HANDLER(TIM2_CAP_COM_IRQHandler, 14)
    475          {
    476             /* In order to detect unexpected events during development,
    477                it is recommended to set a breakpoint on the following instruction.
    478             */
    479          }
   \                     TIM2_CAP_COM_IRQHandler:
   \                     _interrupt_16:
   \   000000 80           IRET
    480          #endif /* (STM8S903) || (STM8AF622x) */
    481          
    482          #if defined(STM8S208) || defined(STM8S207) || defined(STM8S007) || defined(STM8S105) || \
    483              defined(STM8S005) || defined(STM8AF62Ax) || defined(STM8AF52Ax) || defined(STM8AF626x)
    484          /**
    485           * @brief Timer3 Update/Overflow/Break Interrupt routine.
    486           * @param  None
    487           * @retval None
    488           */
    489          INTERRUPT_HANDLER(TIM3_UPD_OVF_BRK_IRQHandler, 15)
    490          {
    491             /* In order to detect unexpected events during development,
    492                it is recommended to set a breakpoint on the following instruction.
    493             */
    494          }
    495          
    496          /**
    497           * @brief Timer3 Capture/Compare Interrupt routine.
    498           * @param  None
    499           * @retval None
    500           */
    501          INTERRUPT_HANDLER(TIM3_CAP_COM_IRQHandler, 16)
    502          {
    503             /* In order to detect unexpected events during development,
    504                it is recommended to set a breakpoint on the following instruction.
    505             */
    506          }
    507          #endif /* (STM8S208) || (STM8S207) || (STM8S105) || (STM8AF62Ax) || (STM8AF52Ax) || (STM8AF626x) */
    508          
    509          #if defined(STM8S208) || defined(STM8S207) || defined(STM8S007) || defined(STM8S103) || \
    510              defined(STM8S003) || defined(STM8S001) || defined(STM8AF62Ax) || defined(STM8AF52Ax) || defined(STM8S903)
    511          /**
    512           * @brief UART1 TX Interrupt routine.
    513           * @param  None
    514           * @retval None
    515           */

   \                                 In section .far_func.text, align 1
    516          INTERRUPT_HANDLER(UART1_TX_IRQHandler, 17)
    517          {
    518             /* In order to detect unexpected events during development,
    519                it is recommended to set a breakpoint on the following instruction.
    520             */
    521          }
   \                     UART1_TX_IRQHandler:
   \                     _interrupt_19:
   \   000000 80           IRET
    522          
    523          /**
    524           * @brief UART1 RX Interrupt routine.
    525           * @param  None
    526           * @retval None
    527           */

   \                                 In section .far_func.text, align 1
    528          INTERRUPT_HANDLER(UART1_RX_IRQHandler, 18)
    529          {
    530             /* In order to detect unexpected events during development,
    531                it is recommended to set a breakpoint on the following instruction.
    532             */
    533          }
   \                     UART1_RX_IRQHandler:
   \                     _interrupt_20:
   \   000000 80           IRET
    534          #endif /* (STM8S208) || (STM8S207) || (STM8S103) || (STM8S001) || (STM8S903) || (STM8AF62Ax) || (STM8AF52Ax) */
    535          
    536          #if defined(STM8AF622x)
    537          /**
    538           * @brief UART4 TX Interrupt routine.
    539           * @param  None
    540           * @retval None
    541           */
    542          INTERRUPT_HANDLER(UART4_TX_IRQHandler, 17)
    543          {
    544             /* In order to detect unexpected events during development,
    545                it is recommended to set a breakpoint on the following instruction.
    546             */
    547          }
    548          
    549          /**
    550           * @brief UART4 RX Interrupt routine.
    551           * @param  None
    552           * @retval None
    553           */
    554          INTERRUPT_HANDLER(UART4_RX_IRQHandler, 18)
    555          {
    556             /* In order to detect unexpected events during development,
    557                it is recommended to set a breakpoint on the following instruction.
    558             */
    559          }
    560          #endif /* (STM8AF622x) */
    561          
    562          /**
    563           * @brief I2C Interrupt routine.
    564           * @param  None
    565           * @retval None
    566           */

   \                                 In section .far_func.text, align 1
    567          INTERRUPT_HANDLER(I2C_IRQHandler, 19)
    568          {
    569             /* In order to detect unexpected events during development,
    570                it is recommended to set a breakpoint on the following instruction.
    571             */
    572          }
   \                     I2C_IRQHandler:
   \                     _interrupt_21:
   \   000000 80           IRET
    573          
    574          #if defined(STM8S105) || defined(STM8S005) || defined(STM8AF626x)
    575          /**
    576           * @brief UART2 TX interrupt routine.
    577           * @param  None
    578           * @retval None
    579           */
    580          INTERRUPT_HANDLER(UART2_TX_IRQHandler, 20)
    581          {
    582             /* In order to detect unexpected events during development,
    583                it is recommended to set a breakpoint on the following instruction.
    584             */
    585          }
    586          
    587          /**
    588           * @brief UART2 RX interrupt routine.
    589           * @param  None
    590           * @retval None
    591           */
    592          INTERRUPT_HANDLER(UART2_RX_IRQHandler, 21)
    593          {
    594             /* In order to detect unexpected events during development,
    595                it is recommended to set a breakpoint on the following instruction.
    596             */
    597          }
    598          #endif /* (STM8S105) || (STM8AF626x) */
    599          
    600          #if defined(STM8S207) || defined(STM8S007) || defined(STM8S208) || defined(STM8AF52Ax) || defined(STM8AF62Ax)
    601          /**
    602           * @brief UART3 TX interrupt routine.
    603           * @param  None
    604           * @retval None
    605           */
    606          INTERRUPT_HANDLER(UART3_TX_IRQHandler, 20)
    607          {
    608             /* In order to detect unexpected events during development,
    609                it is recommended to set a breakpoint on the following instruction.
    610             */
    611          }
    612          
    613          /**
    614           * @brief UART3 RX interrupt routine.
    615           * @param  None
    616           * @retval None
    617           */
    618          INTERRUPT_HANDLER(UART3_RX_IRQHandler, 21)
    619          {
    620             /* In order to detect unexpected events during development,
    621                it is recommended to set a breakpoint on the following instruction.
    622             */
    623          }
    624          #endif /* (STM8S208) || (STM8S207) || (STM8AF52Ax) || (STM8AF62Ax) */
    625          
    626          #if defined(STM8S207) || defined(STM8S007) || defined(STM8S208) || defined(STM8AF52Ax) || defined(STM8AF62Ax)
    627          /**
    628           * @brief ADC2 interrupt routine.
    629           * @param  None
    630           * @retval None
    631           */
    632          INTERRUPT_HANDLER(ADC2_IRQHandler, 22)
    633          {
    634             /* In order to detect unexpected events during development,
    635                it is recommended to set a breakpoint on the following instruction.
    636             */
    637          }
    638          #else  /* STM8S105 or STM8S103 or STM8S903 or STM8AF626x or STM8AF622x */
    639          /**
    640           * @brief ADC1 interrupt routine.
    641           * @par Parameters:
    642           * None
    643           * @retval
    644           * None
    645           */

   \                                 In section .far_func.text, align 1
    646          INTERRUPT_HANDLER(ADC1_IRQHandler, 22)
    647          {
    648             /* In order to detect unexpected events during development,
    649                it is recommended to set a breakpoint on the following instruction.
    650             */
    651          }
   \                     ADC1_IRQHandler:
   \                     _interrupt_24:
   \   000000 80           IRET
    652          #endif /* (STM8S208) || (STM8S207) || (STM8AF52Ax) || (STM8AF62Ax) */
    653          
    654          #if defined(STM8S903) || defined(STM8AF622x)
    655          /**
    656           * @brief Timer6 Update/Overflow/Trigger Interrupt routine.
    657           * @param  None
    658           * @retval None
    659           */
    660          INTERRUPT_HANDLER(TIM6_UPD_OVF_TRG_IRQHandler, 23)
    661          {
    662             /* In order to detect unexpected events during development,
    663                it is recommended to set a breakpoint on the following instruction.
    664             */
    665          }
    666          #else  /* STM8S208 or STM8S207 or STM8S105 or STM8S103 or STM8AF52Ax or STM8AF62Ax or STM8AF626x */
    667          /**
    668           * @brief Timer4 Update/Overflow Interrupt routine.
    669           * @param  None
    670           * @retval None
    671           */

   \                                 In section .far_func.text, align 1
    672          INTERRUPT_HANDLER(TIM4_UPD_OVF_IRQHandler, 23)
    673          {
    674             /* In order to detect unexpected events during development,
    675                it is recommended to set a breakpoint on the following instruction.
    676             */
    677          }
   \                     TIM4_UPD_OVF_IRQHandler:
   \                     _interrupt_25:
   \   000000 80           IRET
    678          #endif /* (STM8S903) || (STM8AF622x)*/
    679          
    680          /**
    681           * @brief Eeprom EEC Interrupt routine.
    682           * @param  None
    683           * @retval None
    684           */

   \                                 In section .far_func.text, align 1
    685          INTERRUPT_HANDLER(EEPROM_EEC_IRQHandler, 24)
    686          {
    687             /* In order to detect unexpected events during development,
    688                it is recommended to set a breakpoint on the following instruction.
    689             */
    690          }
   \                     EEPROM_EEC_IRQHandler:
   \                     _interrupt_26:
   \   000000 80           IRET
    691          
    692          /**
    693           * @}
    694           */
    695          
    696          /************************ (C) COPYRIGHT STMicroelectronics *****END OF FILE****/

   Section sizes:

   Bytes  Function/Label
   -----  --------------
       1  ADC1_IRQHandler
       1  AWU_IRQHandler
       1  CLK_IRQHandler
       2  CONFIG_TIME
       2  DS18B20_CONVERT_TIME
       1  EEPROM_EEC_IRQHandler
       1  EXTI_PORTA_IRQHandler
       1  EXTI_PORTB_IRQHandler
       1  EXTI_PORTC_IRQHandler
       1  EXTI_PORTD_IRQHandler
       1  EXTI_PORTE_IRQHandler
       1  HF_TIME_H
       1  HF_TIME_M
       2  HF_TIME_S
       1  I2C_IRQHandler
       2  KEY_DOWN_TIME
       1  LED_PWM
       1  LED_PWM_TIME
       1  SPI_IRQHandler
       2  TEM_SUB_TIME_S
       1  TIM1_CAP_COM_IRQHandler
     427  TIM1_UPD_OVF_TRG_BRK_IRQHandler
       1  TIM2_CAP_COM_IRQHandler
       1  TIM2_UPD_OVF_BRK_IRQHandler
       1  TIM4_UPD_OVF_IRQHandler
       1  TLI_IRQHandler
       1  TRAP_IRQHandler
       1  UART1_RX_IRQHandler
       1  UART1_TX_IRQHandler
       1  bol_Config_LED_status
       1  the_tem_sub_status

 
 446 bytes in section .far_func.text
  16 bytes in section .near.bss
 
 446 bytes of CODE memory
  16 bytes of DATA memory

Errors: none
Warnings: 1
